target datalayout = "e-m:e-p270:32:32-p271:32:32-p272:64:64-i64:64-i128:128-f80:128-n8:16:32:64-S128"
target triple = "x86_64-pc-linux-gnu"

@hf_ecmp_file_status = internal global i32 0, align 4
@hf_ecmp_file_handle = internal global i32 0, align 4
@hf_ecmp_file_name = internal global i32 0, align 4
@hf_ecmp_data = internal global i32 0, align 4
@hf_ecmp_access_mode = internal global i32 0, align 4
@hf_ecmp_additional_scheme = internal global i32 0, align 4
@hf_ecmp_scheme_data_length = internal global i32 0, align 4
@ett_ecmp_access_mode = internal global i32 0, align 4
@ett_ecmp_access_file = internal global i32 0, align 4
@file_open.fields = internal constant [4 x ptr] [ptr @hf_ecmp_open_in_non_blocking_mode, ptr @hf_ecmp_open_file_relative_to_specified_directory_handle, ptr @hf_ecmp_file_access_mode, ptr null], align 16
@.str.643 = private unnamed_addr constant [23 x i8] c"Additional scheme data\00", align 1

; Function Attrs: null_pointer_is_valid sspstrong uwtable
define internal void @file_open(i32 noundef %0, i1 noundef zeroext %1, ptr noundef %2, ptr noundef %3) #0 {
  %5 = alloca i32, align 4
  %6 = alloca i8, align 1
  %7 = alloca ptr, align 8
  %8 = alloca ptr, align 8
  %9 = alloca ptr, align 8
  %10 = alloca i8, align 1
  %11 = alloca i8, align 1
  store i32 %0, ptr %5, align 4
  %12 = zext i1 %1 to i8
  store i8 %12, ptr %6, align 1
  store ptr %2, ptr %7, align 8
  store ptr %3, ptr %8, align 8
  call void @llvm.lifetime.start.p0(i64 8, ptr %9) #3
  store ptr null, ptr %9, align 8
  call void @llvm.lifetime.start.p0(i64 1, ptr %10) #3
  store i8 0, ptr %10, align 1
  call void @llvm.lifetime.start.p0(i64 1, ptr %11) #3
  store i8 0, ptr %11, align 1
  %13 = load i8, ptr %6, align 1, !range !6, !noundef !7
  %14 = trunc i8 %13 to i1
  br i1 %14, label %15, label %90

15:                                               ; preds = %4
  %16 = load ptr, ptr %8, align 8
  %17 = load ptr, ptr %7, align 8
  %18 = load i32, ptr %5, align 4
  %19 = load i32, ptr @hf_ecmp_access_mode, align 4
  %20 = load i32, ptr @ett_ecmp_access_mode, align 4
  %21 = call ptr @proto_tree_add_bitmask(ptr noundef %16, ptr noundef %17, i32 noundef %18, i32 noundef %19, i32 noundef %20, ptr noundef @file_open.fields, i32 noundef 0)
  %22 = load ptr, ptr %7, align 8
  %23 = load i32, ptr %5, align 4
  %24 = call zeroext i8 @tvb_get_uint8(ptr noundef %22, i32 noundef %23)
  %25 = zext i8 %24 to i32
  %26 = and i32 %25, 64
  %27 = icmp ne i32 %26, 0
  %28 = select i1 %27, i32 1, i32 0
  %29 = trunc i32 %28 to i8
  store i8 %29, ptr %11, align 1
  %30 = load i32, ptr %5, align 4
  %31 = add i32 %30, 1
  store i32 %31, ptr %5, align 4
  %32 = load ptr, ptr %8, align 8
  %33 = load i32, ptr @hf_ecmp_additional_scheme, align 4
  %34 = load ptr, ptr %7, align 8
  %35 = load i32, ptr %5, align 4
  %36 = call ptr @proto_tree_add_item(ptr noundef %32, i32 noundef %33, ptr noundef %34, i32 noundef %35, i32 noundef 1, i32 noundef 0)
  %37 = load ptr, ptr %7, align 8
  %38 = load i32, ptr %5, align 4
  %39 = call zeroext i8 @tvb_get_uint8(ptr noundef %37, i32 noundef %38)
  store i8 %39, ptr %10, align 1
  %40 = load ptr, ptr %8, align 8
  %41 = load i32, ptr @hf_ecmp_file_name, align 4
  %42 = load ptr, ptr %7, align 8
  %43 = load i32, ptr %5, align 4
  %44 = add i32 %43, 1
  %45 = call ptr @proto_tree_add_item(ptr noundef %40, i32 noundef %41, ptr noundef %42, i32 noundef %44, i32 noundef 2, i32 noundef 0)
  %46 = load ptr, ptr %7, align 8
  %47 = load i32, ptr %5, align 4
  %48 = add i32 %47, 1
  %49 = call zeroext i16 @tvb_get_ntohs(ptr noundef %46, i32 noundef %48)
  %50 = zext i16 %49 to i32
  %51 = add i32 %50, 2
  %52 = load i32, ptr %5, align 4
  %53 = add i32 %52, %51
  store i32 %53, ptr %5, align 4
  %54 = load i8, ptr %11, align 1
  %55 = zext i8 %54 to i32
  %56 = icmp eq i32 %55, 1
  br i1 %56, label %57, label %65

57:                                               ; preds = %15
  %58 = load i32, ptr %5, align 4
  %59 = add i32 %58, 1
  store i32 %59, ptr %5, align 4
  %60 = load ptr, ptr %8, align 8
  %61 = load i32, ptr @hf_ecmp_file_handle, align 4
  %62 = load ptr, ptr %7, align 8
  %63 = load i32, ptr %5, align 4
  %64 = call ptr @proto_tree_add_item(ptr noundef %60, i32 noundef %61, ptr noundef %62, i32 noundef %63, i32 noundef 2, i32 noundef 0)
  br label %65

65:                                               ; preds = %57, %15
  %66 = load i8, ptr %10, align 1
  %67 = zext i8 %66 to i32
  %68 = icmp eq i32 %67, 1
  br i1 %68, label %69, label %89

69:                                               ; preds = %65
  %70 = load i32, ptr %5, align 4
  %71 = add i32 %70, 2
  store i32 %71, ptr %5, align 4
  %72 = load ptr, ptr %8, align 8
  %73 = load ptr, ptr %7, align 8
  %74 = load i32, ptr %5, align 4
  %75 = load i32, ptr @ett_ecmp_access_file, align 4
  %76 = call ptr @proto_tree_add_subtree(ptr noundef %72, ptr noundef %73, i32 noundef %74, i32 noundef -1, i32 noundef %75, ptr noundef null, ptr noundef @.str.643)
  store ptr %76, ptr %9, align 8
  %77 = load ptr, ptr %9, align 8
  %78 = load i32, ptr @hf_ecmp_scheme_data_length, align 4
  %79 = load ptr, ptr %7, align 8
  %80 = load i32, ptr %5, align 4
  %81 = call ptr @proto_tree_add_item(ptr noundef %77, i32 noundef %78, ptr noundef %79, i32 noundef %80, i32 noundef 1, i32 noundef 0)
  %82 = load i32, ptr %5, align 4
  %83 = add i32 %82, 1
  store i32 %83, ptr %5, align 4
  %84 = load ptr, ptr %9, align 8
  %85 = load i32, ptr @hf_ecmp_data, align 4
  %86 = load ptr, ptr %7, align 8
  %87 = load i32, ptr %5, align 4
  %88 = call ptr @proto_tree_add_item(ptr noundef %84, i32 noundef %85, ptr noundef %86, i32 noundef %87, i32 noundef -1, i32 noundef 0)
  br label %89

89:                                               ; preds = %69, %65
  br label %110

90:                                               ; preds = %4
  %91 = load ptr, ptr %8, align 8
  %92 = load i32, ptr @hf_ecmp_file_status, align 4
  %93 = load ptr, ptr %7, align 8
  %94 = load i32, ptr %5, align 4
  %95 = call ptr @proto_tree_add_item(ptr noundef %91, i32 noundef %92, ptr noundef %93, i32 noundef %94, i32 noundef 1, i32 noundef 0)
  %96 = load ptr, ptr %7, align 8
  %97 = load i32, ptr %5, align 4
  %98 = call signext i8 @tvb_get_int8(ptr noundef %96, i32 noundef %97)
  %99 = sext i8 %98 to i32
  %100 = icmp sge i32 %99, 0
  br i1 %100, label %101, label %109

101:                                              ; preds = %90
  %102 = load i32, ptr %5, align 4
  %103 = add i32 %102, 1
  store i32 %103, ptr %5, align 4
  %104 = load ptr, ptr %8, align 8
  %105 = load i32, ptr @hf_ecmp_file_handle, align 4
  %106 = load ptr, ptr %7, align 8
  %107 = load i32, ptr %5, align 4
  %108 = call ptr @proto_tree_add_item(ptr noundef %104, i32 noundef %105, ptr noundef %106, i32 noundef %107, i32 noundef 2, i32 noundef 0)
  br label %109

109:                                              ; preds = %101, %90
  br label %110

110:                                              ; preds = %109, %89
  call void @llvm.lifetime.end.p0(i64 1, ptr %11) #3
  call void @llvm.lifetime.end.p0(i64 1, ptr %10) #3
  call void @llvm.lifetime.end.p0(i64 8, ptr %9) #3
  ret void
}