; Function Attrs: null_pointer_is_valid sspstrong uwtable
define internal fastcc void @file_open(i32 noundef %0, i1 noundef zeroext %1, ptr noundef %2, ptr noundef %3) unnamed_addr #0 {
  br i1 %1, label %5, label %37

5:                                                ; preds = %4
  %6 = load i32, ptr @hf_ecmp_access_mode, align 4
  %7 = load i32, ptr @ett_ecmp_access_mode, align 4
  %8 = tail call ptr @proto_tree_add_bitmask(ptr noundef %3, ptr noundef %2, i32 noundef %0, i32 noundef %6, i32 noundef %7, ptr noundef nonnull @file_open.fields, i32 noundef 0)
  %9 = tail call zeroext i8 @tvb_get_uint8(ptr noundef %2, i32 noundef %0)
  %10 = add i32 %0, 1
  %11 = load i32, ptr @hf_ecmp_additional_scheme, align 4
  %12 = tail call ptr @proto_tree_add_item(ptr noundef %3, i32 noundef %11, ptr noundef %2, i32 noundef %10, i32 noundef 1, i32 noundef 0)
  %13 = tail call zeroext i8 @tvb_get_uint8(ptr noundef %2, i32 noundef %10)
  %14 = load i32, ptr @hf_ecmp_file_name, align 4
  %15 = add i32 %0, 2
  %16 = tail call ptr @proto_tree_add_item(ptr noundef %3, i32 noundef %14, ptr noundef %2, i32 noundef %15, i32 noundef 2, i32 noundef 0)
  %17 = tail call zeroext i16 @tvb_get_ntohs(ptr noundef %2, i32 noundef %15)
  %18 = zext i16 %17 to i32
  %19 = add i32 %0, 3
  %20 = add i32 %19, %18
  %21 = and i8 %9, 64
  %.not = icmp eq i8 %21, 0
  br i1 %.not, label %26, label %22

22:                                               ; preds = %5
  %23 = add i32 %20, 1
  %24 = load i32, ptr @hf_ecmp_file_handle, align 4
  %25 = tail call ptr @proto_tree_add_item(ptr noundef %3, i32 noundef %24, ptr noundef %2, i32 noundef %23, i32 noundef 2, i32 noundef 0)
  br label %26

26:                                               ; preds = %22, %5
  %.0 = phi i32 [ %23, %22 ], [ %20, %5 ]
  %27 = icmp eq i8 %13, 1
  br i1 %27, label %28, label %46

28:                                               ; preds = %26
  %29 = add i32 %.0, 2
  %30 = load i32, ptr @ett_ecmp_access_file, align 4
  %31 = tail call ptr @proto_tree_add_subtree(ptr noundef %3, ptr noundef %2, i32 noundef %29, i32 noundef -1, i32 noundef %30, ptr noundef null, ptr noundef nonnull @.str.643)
  %32 = load i32, ptr @hf_ecmp_scheme_data_length, align 4
  %33 = tail call ptr @proto_tree_add_item(ptr noundef %31, i32 noundef %32, ptr noundef %2, i32 noundef %29, i32 noundef 1, i32 noundef 0)
  %34 = add i32 %.0, 3
  %35 = load i32, ptr @hf_ecmp_data, align 4
  %36 = tail call ptr @proto_tree_add_item(ptr noundef %31, i32 noundef %35, ptr noundef %2, i32 noundef %34, i32 noundef -1, i32 noundef 0)
  br label %46

37:                                               ; preds = %4
  %38 = load i32, ptr @hf_ecmp_file_status, align 4
  %39 = tail call ptr @proto_tree_add_item(ptr noundef %3, i32 noundef %38, ptr noundef %2, i32 noundef %0, i32 noundef 1, i32 noundef 0)
  %40 = tail call signext i8 @tvb_get_int8(ptr noundef %2, i32 noundef %0)
  %41 = icmp sgt i8 %40, -1
  br i1 %41, label %42, label %46

42:                                               ; preds = %37
  %43 = add i32 %0, 1
  %44 = load i32, ptr @hf_ecmp_file_handle, align 4
  %45 = tail call ptr @proto_tree_add_item(ptr noundef %3, i32 noundef %44, ptr noundef %2, i32 noundef %43, i32 noundef 2, i32 noundef 0)
  br label %46

46:                                               ; preds = %37, %42, %26, %28
  ret void
}